target datalayout = "e-m:e-p270:32:32-p271:32:32-p272:64:64-i64:64-i128:128-f80:128-n8:16:32:64-S128"
target triple = "x86_64-unknown-linux-gnu"

%"class.std::vector" = type { %"struct.std::_Vector_base" }
%"struct.std::_Vector_base" = type { %"struct.std::_Vector_base<double, std::allocator<double>>::_Vector_impl" }
%"struct.std::_Vector_base<double, std::allocator<double>>::_Vector_impl" = type { %"struct.std::_Vector_base<double, std::allocator<double>>::_Vector_impl_data" }
%"struct.std::_Vector_base<double, std::allocator<double>>::_Vector_impl_data" = type { ptr, ptr, ptr }
%"class.QuantLib::(anonymous namespace)::OdeIntegrationFct" = type { %"class.QuantLib::AdaptiveRungeKutta", ptr, ptr }
%"class.QuantLib::AdaptiveRungeKutta" = type { %"class.std::vector", double, double, double, double, double, double, double, double, double, double, double, double, double, double, double, double, double, double, double, double, double, double, double, double, double, double, double, double, double, double, double, double, double, double, double, double, double, double }
%class.anon.28 = type { ptr, ptr }

; Function Attrs: inlinehint mustprogress nounwind uwtable
define linkonce_odr noundef double @_ZN8QuantLib7squaredIdEET_S1_(double noundef %x) #5 comdat {
entry:
  %x.addr = alloca double, align 8
  store double %x, ptr %x.addr, align 8, !tbaa !7
  %0 = load double, ptr %x.addr, align 8, !tbaa !7
  %1 = load double, ptr %x.addr, align 8, !tbaa !7
  %mul = fmul double %0, %1
  ret double %mul
}

; Function Attrs: mustprogress nounwind uwtable
define linkonce_odr noundef nonnull align 8 dereferenceable(8) ptr @_ZNKSt6vectorIdSaIdEEixEm(ptr noundef nonnull align 8 dereferenceable(24) %this, i64 noundef %__n) #3 comdat align 2 {
entry:
  %this.addr = alloca ptr, align 8
  %__n.addr = alloca i64, align 8
  store ptr %this, ptr %this.addr, align 8, !tbaa !3
  store i64 %__n, ptr %__n.addr, align 8, !tbaa !9
  %this1 = load ptr, ptr %this.addr, align 8
  %_M_impl = getelementptr inbounds nuw %"struct.std::_Vector_base", ptr %this1, i32 0, i32 0
  %_M_start = getelementptr inbounds nuw %"struct.std::_Vector_base<double, std::allocator<double>>::_Vector_impl_data", ptr %_M_impl, i32 0, i32 0
  %0 = load ptr, ptr %_M_start, align 8, !tbaa !32
  %1 = load i64, ptr %__n.addr, align 8, !tbaa !9
  %add.ptr = getelementptr inbounds nuw double, ptr %0, i64 %1
  ret ptr %add.ptr
}

; Function Attrs: mustprogress nounwind uwtable
define linkonce_odr noundef i64 @_ZNKSt6vectorIdSaIdEE4sizeEv(ptr noundef nonnull align 8 dereferenceable(24) %this) #3 comdat align 2 {
entry:
  %this.addr = alloca ptr, align 8
  store ptr %this, ptr %this.addr, align 8, !tbaa !3
  %this1 = load ptr, ptr %this.addr, align 8
  %_M_impl = getelementptr inbounds nuw %"struct.std::_Vector_base", ptr %this1, i32 0, i32 0
  %_M_finish = getelementptr inbounds nuw %"struct.std::_Vector_base<double, std::allocator<double>>::_Vector_impl_data", ptr %_M_impl, i32 0, i32 1
  %0 = load ptr, ptr %_M_finish, align 8, !tbaa !29
  %_M_impl2 = getelementptr inbounds nuw %"struct.std::_Vector_base", ptr %this1, i32 0, i32 0
  %_M_start = getelementptr inbounds nuw %"struct.std::_Vector_base<double, std::allocator<double>>::_Vector_impl_data", ptr %_M_impl2, i32 0, i32 0
  %1 = load ptr, ptr %_M_start, align 8, !tbaa !32
  %sub.ptr.lhs.cast = ptrtoint ptr %0 to i64
  %sub.ptr.rhs.cast = ptrtoint ptr %1 to i64
  %sub.ptr.sub = sub i64 %sub.ptr.lhs.cast, %sub.ptr.rhs.cast
  %sub.ptr.div = sdiv exact i64 %sub.ptr.sub, 8
  ret i64 %sub.ptr.div
}

; Function Attrs: mustprogress uwtable
define internal noundef double @_ZNK8QuantLib12_GLOBAL__N_117OdeIntegrationFct3jacEddd(ptr noundef nonnull align 8 dereferenceable(344) %this, double noundef %a, double noundef %0, double noundef %y) #0 align 2 {
entry:
  %this.addr = alloca ptr, align 8
  %a.addr = alloca double, align 8
  %.addr = alloca double, align 8
  %y.addr = alloca double, align 8
  %s = alloca double, align 8
  %i = alloca i64, align 8
  store ptr %this, ptr %this.addr, align 8, !tbaa !3
  store double %a, ptr %a.addr, align 8, !tbaa !7
  store double %0, ptr %.addr, align 8, !tbaa !7
  store double %y, ptr %y.addr, align 8, !tbaa !7
  %this1 = load ptr, ptr %this.addr, align 8
  call void @llvm.lifetime.start.p0(i64 8, ptr %s) #18
  store double 0.000000e+00, ptr %s, align 8, !tbaa !7
  call void @llvm.lifetime.start.p0(i64 8, ptr %i) #18
  store i64 0, ptr %i, align 8, !tbaa !9
  br label %for.cond

for.cond:                                         ; preds = %for.inc, %entry
  %1 = load i64, ptr %i, align 8, !tbaa !9
  %points_ = getelementptr inbounds nuw %"class.QuantLib::(anonymous namespace)::OdeIntegrationFct", ptr %this1, i32 0, i32 1
  %2 = load ptr, ptr %points_, align 8, !tbaa !132
  %call = call noundef i64 @_ZNKSt6vectorIdSaIdEE4sizeEv(ptr noundef nonnull align 8 dereferenceable(24) %2) #18
  %cmp = icmp ult i64 %1, %call
  br i1 %cmp, label %for.body, label %for.cond.cleanup

for.cond.cleanup:                                 ; preds = %for.cond
  call void @llvm.lifetime.end.p0(i64 8, ptr %i) #18
  br label %for.end

for.body:                                         ; preds = %for.cond
  %betas_ = getelementptr inbounds nuw %"class.QuantLib::(anonymous namespace)::OdeIntegrationFct", ptr %this1, i32 0, i32 2
  %3 = load ptr, ptr %betas_, align 8, !tbaa !134
  %4 = load i64, ptr %i, align 8, !tbaa !9
  %call2 = call noundef nonnull align 8 dereferenceable(8) ptr @_ZNKSt6vectorIdSaIdEEixEm(ptr noundef nonnull align 8 dereferenceable(24) %3, i64 noundef %4) #18
  %5 = load double, ptr %call2, align 8, !tbaa !7
  %6 = load double, ptr %y.addr, align 8, !tbaa !7
  %points_3 = getelementptr inbounds nuw %"class.QuantLib::(anonymous namespace)::OdeIntegrationFct", ptr %this1, i32 0, i32 1
  %7 = load ptr, ptr %points_3, align 8, !tbaa !132
  %8 = load i64, ptr %i, align 8, !tbaa !9
  %call4 = call noundef nonnull align 8 dereferenceable(8) ptr @_ZNKSt6vectorIdSaIdEEixEm(ptr noundef nonnull align 8 dereferenceable(24) %7, i64 noundef %8) #18
  %9 = load double, ptr %call4, align 8, !tbaa !7
  %sub = fsub double %6, %9
  %call5 = call noundef double @_ZN8QuantLib7squaredIdEET_S1_(double noundef %sub)
  %add = fadd double %5, %call5
  %div = fdiv double 1.000000e+00, %add
  %10 = load double, ptr %s, align 8, !tbaa !7
  %add6 = fadd double %10, %div
  store double %add6, ptr %s, align 8, !tbaa !7
  br label %for.inc

for.inc:                                          ; preds = %for.body
  %11 = load i64, ptr %i, align 8, !tbaa !9
  %inc = add i64 %11, 1
  store i64 %inc, ptr %i, align 8, !tbaa !9
  br label %for.cond, !llvm.loop !135

for.end:                                          ; preds = %for.cond.cleanup
  %12 = load double, ptr %a.addr, align 8, !tbaa !7
  %13 = load double, ptr %s, align 8, !tbaa !7
  %call7 = call double @sqrt(double noundef %13) #18, !tbaa !20
  %div8 = fdiv double %12, %call7
  call void @llvm.lifetime.end.p0(i64 8, ptr %s) #18
  ret double %div8
}

; Function Attrs: inlinehint mustprogress uwtable
define internal noundef double @_ZZN8QuantLib12_GLOBAL__N_117OdeIntegrationFct5solveEddddENKUlddE_clEdd(ptr noundef nonnull align 8 dereferenceable(16) %this, double noundef %x, double noundef %y) #2 align 2 {
entry:
  %this.addr = alloca ptr, align 8
  %x.addr = alloca double, align 8
  %y.addr = alloca double, align 8
  store ptr %this, ptr %this.addr, align 8, !tbaa !3
  store double %x, ptr %x.addr, align 8, !tbaa !7
  store double %y, ptr %y.addr, align 8, !tbaa !7
  %this1 = load ptr, ptr %this.addr, align 8
  %0 = getelementptr inbounds nuw %class.anon.28, ptr %this1, i32 0, i32 0
  %1 = load ptr, ptr %0, align 8, !tbaa !59
  %2 = getelementptr inbounds nuw %class.anon.28, ptr %this1, i32 0, i32 1
  %3 = load ptr, ptr %2, align 8, !tbaa !131
  %4 = load double, ptr %3, align 8, !tbaa !7
  %5 = load double, ptr %x.addr, align 8, !tbaa !7
  %6 = load double, ptr %y.addr, align 8, !tbaa !7
  %call = call noundef double @_ZNK8QuantLib12_GLOBAL__N_117OdeIntegrationFct3jacEddd(ptr noundef nonnull align 8 dereferenceable(344) %1, double noundef %4, double noundef %5, double noundef %6)
  ret double %call
}

; Function Attrs: mustprogress nounwind uwtable
define linkonce_odr noundef ptr @_ZNKSt9_Any_data9_M_accessEv(ptr noundef nonnull align 8 dereferenceable(16) %this) #3 comdat align 2 {
entry:
  %this.addr = alloca ptr, align 8
  store ptr %this, ptr %this.addr, align 8, !tbaa !3
  %this1 = load ptr, ptr %this.addr, align 8
  %arrayidx = getelementptr inbounds [16 x i8], ptr %this1, i64 0, i64 0
  ret ptr %arrayidx
}

; Function Attrs: mustprogress uwtable
define internal noundef double @_ZSt13__invoke_implIdRZN8QuantLib12_GLOBAL__N_117OdeIntegrationFct5solveEddddEUlddE_JddEET_St14__invoke_otherOT0_DpOT1_(ptr noundef nonnull align 8 dereferenceable(16) %__f, ptr noundef nonnull align 8 dereferenceable(8) %__args, ptr noundef nonnull align 8 dereferenceable(8) %__args1) #0 {
entry:
  %__f.addr = alloca ptr, align 8
  %__args.addr = alloca ptr, align 8
  %__args.addr2 = alloca ptr, align 8
  store ptr %__f, ptr %__f.addr, align 8, !tbaa !3
  store ptr %__args, ptr %__args.addr, align 8, !tbaa !3
  store ptr %__args1, ptr %__args.addr2, align 8, !tbaa !3
  %0 = load ptr, ptr %__f.addr, align 8, !tbaa !3
  %1 = load ptr, ptr %__args.addr, align 8, !tbaa !3
  %2 = load double, ptr %1, align 8, !tbaa !7
  %3 = load ptr, ptr %__args.addr2, align 8, !tbaa !3
  %4 = load double, ptr %3, align 8, !tbaa !7
  %call = call noundef double @_ZZN8QuantLib12_GLOBAL__N_117OdeIntegrationFct5solveEddddENKUlddE_clEdd(ptr noundef nonnull align 8 dereferenceable(16) %0, double noundef %2, double noundef %4)
  ret double %call
}

; Function Attrs: mustprogress nounwind uwtable
define internal noundef nonnull align 8 dereferenceable(16) ptr @_ZNKSt9_Any_data9_M_accessIZN8QuantLib12_GLOBAL__N_117OdeIntegrationFct5solveEddddEUlddE_EERKT_v(ptr noundef nonnull align 8 dereferenceable(16) %this) #3 align 2 {
entry:
  %this.addr = alloca ptr, align 8
  store ptr %this, ptr %this.addr, align 8, !tbaa !3
  %this1 = load ptr, ptr %this.addr, align 8
  %call = call noundef ptr @_ZNKSt9_Any_data9_M_accessEv(ptr noundef nonnull align 8 dereferenceable(16) %this1) #18
  ret ptr %call
}

; Function Attrs: mustprogress uwtable
define internal noundef double @_ZSt10__invoke_rIdRZN8QuantLib12_GLOBAL__N_117OdeIntegrationFct5solveEddddEUlddE_JddEENSt9enable_ifIX16is_invocable_r_vIT_T0_DpT1_EES6_E4typeEOS7_DpOS8_(ptr noundef nonnull align 8 dereferenceable(16) %__fn, ptr noundef nonnull align 8 dereferenceable(8) %__args, ptr noundef nonnull align 8 dereferenceable(8) %__args1) #0 {
entry:
  %__fn.addr = alloca ptr, align 8
  %__args.addr = alloca ptr, align 8
  %__args.addr2 = alloca ptr, align 8
  store ptr %__fn, ptr %__fn.addr, align 8, !tbaa !3
  store ptr %__args, ptr %__args.addr, align 8, !tbaa !3
  store ptr %__args1, ptr %__args.addr2, align 8, !tbaa !3
  %0 = load ptr, ptr %__fn.addr, align 8, !tbaa !3
  %1 = load ptr, ptr %__args.addr, align 8, !tbaa !3
  %2 = load ptr, ptr %__args.addr2, align 8, !tbaa !3
  %call = call noundef double @_ZSt13__invoke_implIdRZN8QuantLib12_GLOBAL__N_117OdeIntegrationFct5solveEddddEUlddE_JddEET_St14__invoke_otherOT0_DpOT1_(ptr noundef nonnull align 8 dereferenceable(16) %0, ptr noundef nonnull align 8 dereferenceable(8) %1, ptr noundef nonnull align 8 dereferenceable(8) %2)
  ret double %call
}

; Function Attrs: mustprogress nounwind uwtable
define internal noundef ptr @_ZNSt14_Function_base13_Base_managerIZN8QuantLib12_GLOBAL__N_117OdeIntegrationFct5solveEddddEUlddE_E14_M_get_pointerERKSt9_Any_data(ptr noundef nonnull align 8 dereferenceable(16) %__source) #3 align 2 {
entry:
  %__source.addr = alloca ptr, align 8
  %__f = alloca ptr, align 8
  store ptr %__source, ptr %__source.addr, align 8, !tbaa !3
  call void @llvm.lifetime.start.p0(i64 8, ptr %__f) #18
  %0 = load ptr, ptr %__source.addr, align 8, !tbaa !3
  %call = call noundef nonnull align 8 dereferenceable(16) ptr @_ZNKSt9_Any_data9_M_accessIZN8QuantLib12_GLOBAL__N_117OdeIntegrationFct5solveEddddEUlddE_EERKT_v(ptr noundef nonnull align 8 dereferenceable(16) %0) #18
  store ptr %call, ptr %__f, align 8, !tbaa !3
  %1 = load ptr, ptr %__f, align 8, !tbaa !3
  call void @llvm.lifetime.end.p0(i64 8, ptr %__f) #18
  ret ptr %1
}

; Function Attrs: mustprogress uwtable
define internal noundef double @_ZNSt17_Function_handlerIFdddEZN8QuantLib12_GLOBAL__N_117OdeIntegrationFct5solveEddddEUlddE_E9_M_invokeERKSt9_Any_dataOdS9_(ptr noundef nonnull align 8 dereferenceable(16) %__functor, ptr noundef nonnull align 8 dereferenceable(8) %__args, ptr noundef nonnull align 8 dereferenceable(8) %__args1) #0 align 2 {
entry:
  %__functor.addr = alloca ptr, align 8
  %__args.addr = alloca ptr, align 8
  %__args.addr2 = alloca ptr, align 8
  store ptr %__functor, ptr %__functor.addr, align 8, !tbaa !3
  store ptr %__args, ptr %__args.addr, align 8, !tbaa !3
  store ptr %__args1, ptr %__args.addr2, align 8, !tbaa !3
  %0 = load ptr, ptr %__functor.addr, align 8, !tbaa !3
  %call = call noundef ptr @_ZNSt14_Function_base13_Base_managerIZN8QuantLib12_GLOBAL__N_117OdeIntegrationFct5solveEddddEUlddE_E14_M_get_pointerERKSt9_Any_data(ptr noundef nonnull align 8 dereferenceable(16) %0) #18
  %1 = load ptr, ptr %__args.addr, align 8, !tbaa !3
  %2 = load ptr, ptr %__args.addr2, align 8, !tbaa !3
  %call3 = call noundef double @_ZSt10__invoke_rIdRZN8QuantLib12_GLOBAL__N_117OdeIntegrationFct5solveEddddEUlddE_JddEENSt9enable_ifIX16is_invocable_r_vIT_T0_DpT1_EES6_E4typeEOS7_DpOS8_(ptr noundef nonnull align 8 dereferenceable(16) %call, ptr noundef nonnull align 8 dereferenceable(8) %1, ptr noundef nonnull align 8 dereferenceable(8) %2)
  ret double %call3
}