; Function Attrs: mustprogress nofree nounwind memory(readwrite, inaccessiblemem: write) uwtable
define internal noundef double @_ZNSt17_Function_handlerIFdddEZN8QuantLib12_GLOBAL__N_117OdeIntegrationFct5solveEddddEUlddE_E9_M_invokeERKSt9_Any_dataOdS9_(ptr nocapture noundef nonnull readonly align 8 dereferenceable(16) %__functor, ptr nocapture nonnull readonly align 8 %__args, ptr nocapture noundef nonnull readonly align 8 dereferenceable(8) %__args1) #14 align 2 {
entry:
  %call.val = load ptr, ptr %__functor, align 8, !tbaa !127
  %0 = getelementptr inbounds i8, ptr %__functor, i64 8
  %call.val1 = load ptr, ptr %0, align 8, !tbaa !129
  %__args1.val = load double, ptr %__args1, align 8, !tbaa !22
  %1 = getelementptr i8, ptr %call.val, i64 328
  %call.val.val = load ptr, ptr %1, align 8
  %call.val1.val = load double, ptr %call.val1, align 8, !tbaa !22
  %call.val.val.val = load ptr, ptr %call.val.val, align 8, !tbaa !18
  %2 = getelementptr i8, ptr %call.val.val, i64 8
  %call.val.val.val3 = load ptr, ptr %2, align 8, !tbaa !41
  %cmp1.not.i.i.i.i = icmp eq ptr %call.val.val.val3, %call.val.val.val
  br i1 %cmp1.not.i.i.i.i, label %_ZSt10__invoke_rIdRZN8QuantLib12_GLOBAL__N_117OdeIntegrationFct5solveEddddEUlddE_JddEENSt9enable_ifIX16is_invocable_r_vIT_T0_DpT1_EES6_E4typeEOS7_DpOS8_.exit, label %for.body.lr.ph.i.i.i.i

for.body.lr.ph.i.i.i.i:                           ; preds = %entry
  %3 = getelementptr i8, ptr %call.val, i64 336
  %call.val.val2 = load ptr, ptr %3, align 8
  %sub.ptr.lhs.cast.i.i.i.i.i = ptrtoint ptr %call.val.val.val3 to i64
  %sub.ptr.rhs.cast.i.i.i.i.i = ptrtoint ptr %call.val.val.val to i64
  %sub.ptr.sub.i.i.i.i.i = sub i64 %sub.ptr.lhs.cast.i.i.i.i.i, %sub.ptr.rhs.cast.i.i.i.i.i
  %sub.ptr.div.i.i.i.i.i = ashr exact i64 %sub.ptr.sub.i.i.i.i.i, 3
  %4 = load ptr, ptr %call.val.val2, align 8, !tbaa !18
  %umax.i.i.i.i = tail call i64 @llvm.umax.i64(i64 %sub.ptr.div.i.i.i.i.i, i64 1)
  br label %for.body.i.i.i.i

for.body.i.i.i.i:                                 ; preds = %for.body.i.i.i.i, %for.body.lr.ph.i.i.i.i
  %i.03.i.i.i.i = phi i64 [ 0, %for.body.lr.ph.i.i.i.i ], [ %inc.i.i.i.i, %for.body.i.i.i.i ]
  %s.02.i.i.i.i = phi double [ 0.000000e+00, %for.body.lr.ph.i.i.i.i ], [ %add6.i.i.i.i, %for.body.i.i.i.i ]
  %add.ptr.i.i.i.i.i = getelementptr inbounds nuw double, ptr %4, i64 %i.03.i.i.i.i
  %5 = load double, ptr %add.ptr.i.i.i.i.i, align 8, !tbaa !22
  %add.ptr.i5.i.i.i.i = getelementptr inbounds nuw double, ptr %call.val.val.val, i64 %i.03.i.i.i.i
  %6 = load double, ptr %add.ptr.i5.i.i.i.i, align 8, !tbaa !22
  %sub.i.i.i.i = fsub double %__args1.val, %6
  %mul.i.i.i.i.i = fmul double %sub.i.i.i.i, %sub.i.i.i.i
  %add.i.i.i.i = fadd double %5, %mul.i.i.i.i.i
  %div.i.i.i.i = fdiv double 1.000000e+00, %add.i.i.i.i
  %add6.i.i.i.i = fadd double %s.02.i.i.i.i, %div.i.i.i.i
  %inc.i.i.i.i = add nuw i64 %i.03.i.i.i.i, 1
  %exitcond.not.i.i.i.i = icmp eq i64 %inc.i.i.i.i, %umax.i.i.i.i
  br i1 %exitcond.not.i.i.i.i, label %_ZSt10__invoke_rIdRZN8QuantLib12_GLOBAL__N_117OdeIntegrationFct5solveEddddEUlddE_JddEENSt9enable_ifIX16is_invocable_r_vIT_T0_DpT1_EES6_E4typeEOS7_DpOS8_.exit, label %for.body.i.i.i.i, !llvm.loop !130

_ZSt10__invoke_rIdRZN8QuantLib12_GLOBAL__N_117OdeIntegrationFct5solveEddddEUlddE_JddEENSt9enable_ifIX16is_invocable_r_vIT_T0_DpT1_EES6_E4typeEOS7_DpOS8_.exit: ; preds = %for.body.i.i.i.i, %entry
  %s.0.lcssa.i.i.i.i = phi double [ 0.000000e+00, %entry ], [ %add6.i.i.i.i, %for.body.i.i.i.i ]
  %call7.i.i.i.i = tail call double @sqrt(double noundef %s.0.lcssa.i.i.i.i) #24, !tbaa !20
  %div8.i.i.i.i = fdiv double %call.val1.val, %call7.i.i.i.i
  ret double %div8.i.i.i.i
}